; ModuleID = 'source-C-CXX/18/2405.c'
source_filename = "source-C-CXX/18/2405.c"
target datalayout = "e-m:e-p270:32:32-p271:32:32-p272:64:64-i64:64-f80:128-n8:16:32:64-S128"
target triple = "x86_64-pc-linux-gnu"

@.str = private unnamed_addr constant [4 x i8] c"%s \00", align 1
@.str.1 = private unnamed_addr constant [3 x i8] c"%s\00", align 1

; Function Attrs: nounwind sspstrong uwtable
define dso_local i32 @main() local_unnamed_addr #0 {
  %1 = alloca [100 x i8], align 16
  %2 = alloca [100 x i8], align 16
  %3 = alloca [100 x i8], align 16
  %4 = alloca [100 x [100 x i8]], align 16
  %5 = getelementptr inbounds [100 x i8], [100 x i8]* %1, i64 0, i64 0
  call void @llvm.lifetime.start.p0i8(i64 100, i8* nonnull %5) #6
  %6 = getelementptr inbounds [100 x i8], [100 x i8]* %2, i64 0, i64 0
  call void @llvm.lifetime.start.p0i8(i64 100, i8* nonnull %6) #6
  %7 = getelementptr inbounds [100 x i8], [100 x i8]* %3, i64 0, i64 0
  call void @llvm.lifetime.start.p0i8(i64 100, i8* nonnull %7) #6
  %8 = getelementptr inbounds [100 x [100 x i8]], [100 x [100 x i8]]* %4, i64 0, i64 0, i64 0
  call void @llvm.lifetime.start.p0i8(i64 10000, i8* nonnull %8) #6
  %9 = call i32 (i8*, ...) bitcast (i32 (...)* @gets to i32 (i8*, ...)*)(i8* nonnull %5) #6
  %10 = call i32 (i8*, ...) bitcast (i32 (...)* @gets to i32 (i8*, ...)*)(i8* nonnull %6) #6
  %11 = call i32 (i8*, ...) bitcast (i32 (...)* @gets to i32 (i8*, ...)*)(i8* nonnull %7) #6
  %12 = load i8, i8* %5, align 16, !tbaa !5
  %13 = icmp eq i8 %12, 0
  br i1 %13, label %14, label %16

14:                                               ; preds = %0
  %15 = getelementptr inbounds [100 x [100 x i8]], [100 x [100 x i8]]* %4, i64 0, i64 0, i64 0
  store i8 0, i8* %15, align 16, !tbaa !5
  br label %79

16:                                               ; preds = %0, %41
  %17 = phi i64 [ %42, %41 ], [ 0, %0 ]
  %18 = phi i64 [ %36, %41 ], [ 0, %0 ]
  %19 = shl i64 %18, 32
  %20 = ashr exact i64 %19, 32
  br label %21

21:                                               ; preds = %16, %26
  %22 = phi i64 [ 0, %16 ], [ %28, %26 ]
  %23 = phi i64 [ %20, %16 ], [ %29, %26 ]
  %24 = getelementptr inbounds [100 x i8], [100 x i8]* %1, i64 0, i64 %23
  %25 = load i8, i8* %24, align 1, !tbaa !5
  switch i8 %25, label %26 [
    i8 32, label %30
    i8 0, label %30
  ]

26:                                               ; preds = %21
  %27 = getelementptr inbounds [100 x [100 x i8]], [100 x [100 x i8]]* %4, i64 0, i64 %17, i64 %22
  store i8 %25, i8* %27, align 1, !tbaa !5
  %28 = add nuw i64 %22, 1
  %29 = add i64 %23, 1
  br label %21, !llvm.loop !8

30:                                               ; preds = %21, %21
  %31 = and i64 %22, 4294967295
  %32 = getelementptr inbounds [100 x [100 x i8]], [100 x [100 x i8]]* %4, i64 0, i64 %17, i64 %31
  store i8 0, i8* %32, align 1, !tbaa !5
  %33 = shl i64 %23, 32
  %34 = ashr exact i64 %33, 32
  br label %35

35:                                               ; preds = %35, %30
  %36 = phi i64 [ %40, %35 ], [ %34, %30 ]
  %37 = getelementptr inbounds [100 x i8], [100 x i8]* %1, i64 0, i64 %36
  %38 = load i8, i8* %37, align 1, !tbaa !5
  %39 = icmp eq i8 %38, 32
  %40 = add i64 %36, 1
  br i1 %39, label %35, label %41, !llvm.loop !10

41:                                               ; preds = %35
  %42 = add nuw i64 %17, 1
  %43 = shl i64 %36, 32
  %44 = ashr exact i64 %43, 32
  %45 = getelementptr inbounds [100 x i8], [100 x i8]* %1, i64 0, i64 %44
  %46 = load i8, i8* %45, align 1, !tbaa !5
  %47 = icmp eq i8 %46, 0
  br i1 %47, label %48, label %16, !llvm.loop !11

48:                                               ; preds = %41
  %49 = trunc i64 %42 to i32
  %50 = shl i64 %22, 32
  %51 = add i64 %50, 4294967296
  %52 = ashr exact i64 %51, 32
  %53 = and i64 %42, 4294967295
  %54 = getelementptr inbounds [100 x [100 x i8]], [100 x [100 x i8]]* %4, i64 0, i64 %53, i64 %52
  store i8 0, i8* %54, align 1, !tbaa !5
  %55 = icmp eq i32 %49, 0
  br i1 %55, label %79, label %61

56:                                               ; preds = %68
  %57 = icmp sgt i32 %49, 1
  br i1 %57, label %58, label %79

58:                                               ; preds = %56
  %59 = add nsw i32 %49, -1
  %60 = zext i32 %59 to i64
  br label %71

61:                                               ; preds = %48, %68
  %62 = phi i64 [ %69, %68 ], [ 0, %48 ]
  %63 = getelementptr inbounds [100 x [100 x i8]], [100 x [100 x i8]]* %4, i64 0, i64 %62, i64 0
  %64 = call i32 @strcmp(i8* noundef nonnull %63, i8* noundef nonnull %6) #7
  %65 = icmp eq i32 %64, 0
  br i1 %65, label %66, label %68

66:                                               ; preds = %61
  %67 = call i8* @strcpy(i8* noundef nonnull %63, i8* noundef nonnull %7) #6
  br label %68

68:                                               ; preds = %61, %66
  %69 = add nuw nsw i64 %62, 1
  %70 = icmp eq i64 %69, %53
  br i1 %70, label %56, label %61, !llvm.loop !12

71:                                               ; preds = %58, %71
  %72 = phi i64 [ 0, %58 ], [ %75, %71 ]
  %73 = getelementptr inbounds [100 x [100 x i8]], [100 x [100 x i8]]* %4, i64 0, i64 %72, i64 0
  %74 = call i32 (i8*, ...) @printf(i8* nonnull dereferenceable(1) getelementptr inbounds ([4 x i8], [4 x i8]* @.str, i64 0, i64 0), i8* nonnull %73)
  %75 = add nuw nsw i64 %72, 1
  %76 = icmp eq i64 %75, %60
  br i1 %76, label %77, label %71, !llvm.loop !13

77:                                               ; preds = %71
  %78 = zext i32 %59 to i64
  br label %79

79:                                               ; preds = %48, %14, %56, %77
  %80 = phi i64 [ %78, %77 ], [ 0, %56 ], [ 0, %14 ], [ 0, %48 ]
  %81 = getelementptr inbounds [100 x [100 x i8]], [100 x [100 x i8]]* %4, i64 0, i64 %80, i64 0
  %82 = call i32 (i8*, ...) @printf(i8* nonnull dereferenceable(1) getelementptr inbounds ([3 x i8], [3 x i8]* @.str.1, i64 0, i64 0), i8* nonnull %81)
  call void @llvm.lifetime.end.p0i8(i64 10000, i8* nonnull %8) #6
  call void @llvm.lifetime.end.p0i8(i64 100, i8* nonnull %7) #6
  call void @llvm.lifetime.end.p0i8(i64 100, i8* nonnull %6) #6
  call void @llvm.lifetime.end.p0i8(i64 100, i8* nonnull %5) #6
  ret i32 0
}

; Function Attrs: argmemonly mustprogress nofree nosync nounwind willreturn
declare void @llvm.lifetime.start.p0i8(i64 immarg, i8* nocapture) #1

declare i32 @gets(...) local_unnamed_addr #2

; Function Attrs: argmemonly mustprogress nofree nounwind readonly willreturn
declare i32 @strcmp(i8* nocapture, i8* nocapture) local_unnamed_addr #3

; Function Attrs: argmemonly mustprogress nofree nounwind willreturn
declare i8* @strcpy(i8* noalias returned writeonly, i8* noalias nocapture readonly) local_unnamed_addr #4

; Function Attrs: nofree nounwind
declare noundef i32 @printf(i8* nocapture noundef readonly, ...) local_unnamed_addr #5

; Function Attrs: argmemonly mustprogress nofree nosync nounwind willreturn
declare void @llvm.lifetime.end.p0i8(i64 immarg, i8* nocapture) #1


!llvm.module.flags = !{!0, !1, !2, !3}
!llvm.ident = !{!4}

!0 = !{i32 1, !"wchar_size", i32 4}
!1 = !{i32 7, !"PIC Level", i32 2}
!2 = !{i32 7, !"PIE Level", i32 2}
!3 = !{i32 7, !"uwtable", i32 1}
!4 = !{!"clang version 13.0.0"}
!5 = !{!6, !6, i64 0}
!6 = !{!"omnipotent char", !7, i64 0}
!7 = !{!"Simple C/C++ TBAA"}
!8 = distinct !{!8, !9}
!9 = !{!"llvm.loop.mustprogress"}
!10 = distinct !{!10, !9}
!11 = distinct !{!11, !9}
!12 = distinct !{!12, !9}
!13 = distinct !{!13, !9}
